; Function Attrs: mustprogress nounwind uwtable
define hidden void @_ZN12outputStream2spEi(ptr noundef nonnull align 8 dereferenceable(56) %0, i32 noundef %1) local_unnamed_addr #0 align 2 {
  %3 = icmp sgt i32 %1, 0
  br i1 %3, label %.preheader, label %.loopexit

.preheader:                                       ; preds = %2, %.preheader
  %.0 = phi i32 [ %9, %.preheader ], [ %1, %2 ]
  %4 = tail call i32 @llvm.umin.i32(i32 %.0, i32 8)
  %5 = zext nneg i32 %4 to i64
  %6 = load ptr, ptr %0, align 8
  %7 = getelementptr inbounds i8, ptr %6, i64 8
  %8 = load ptr, ptr %7, align 8
  tail call void %8(ptr noundef nonnull align 8 dereferenceable(56) %0, ptr noundef nonnull @.str.4, i64 noundef %5) #21
  %9 = sub nsw i32 %.0, %4
  %.old1 = icmp sgt i32 %9, 0
  br i1 %.old1, label %.preheader, label %.loopexit

.loopexit:                                        ; preds = %.preheader, %2
  ret void
}